Certificate:
    Data:
        Version: 3 (0x2)
        Serial Number: 4 (0x4)
        Signature Algorithm: md5WithRSAEncryption
        Issuer: C=IN, ST=MAHARASTRA, L=PUNE, O=AVAYA INDIA PVT LTD, OU=CSAD, CN=PROACTIVE CONTACT CA
        Validity
            Not Before: Jan 18 19:31:27 2011 GMT
            Not After : Jan 15 19:31:27 2021 GMT
        Subject: C=IN, ST=MAHARASTRA, L=PUNE, O=AVAYA INDIA PVT LTD, OU=CSAD, CN=AGENT CLIENT KEY
        Subject Public Key Info:
            Public Key Algorithm: rsaEncryption
            RSA Public Key: (1024 bit)
                Modulus (1024 bit):
                    00:a5:93:6d:82:57:9f:3a:94:e1:4a:6f:02:16:9c:
                    c9:19:85:40:9a:0b:85:91:27:14:7f:c6:2d:04:80:
                    10:ac:5a:ac:4d:06:42:66:58:07:62:5a:bc:e0:88:
                    5c:e9:e5:0b:09:c0:6d:86:c9:b1:e3:c9:cd:7d:a1:
                    91:69:f9:19:b6:83:71:cb:92:46:c0:05:68:c8:67:
                    8d:d7:0b:bf:6d:f6:8e:21:61:4f:da:59:8c:7f:a6:
                    a9:83:dc:1d:ed:90:92:66:39:ec:39:49:4e:b6:51:
                    32:6e:de:12:75:3c:ec:e0:c7:d9:36:ea:ca:3d:8f:
                    54:e4:84:84:0d:fb:82:ba:f1
                Exponent: 65537 (0x10001)
        X509v3 extensions:
            X509v3 Basic Constraints: 
                CA:FALSE
            Netscape Comment: 
                OpenSSL Generated Certificate
            X509v3 Subject Key Identifier: 
                50:A4:A0:8D:2F:87:1D:A3:0E:2F:1B:AE:A1:79:B1:BB:2F:22:1B:06
            X509v3 Authority Key Identifier: 
                keyid:6D:C0:74:A7:9E:59:82:11:89:E2:DC:A3:E7:06:63:09:02:08:D8:9D

    Signature Algorithm: md5WithRSAEncryption
        32:03:46:18:76:16:eb:3a:f4:19:20:5d:b0:60:d3:dc:c6:31:
        1b:67:0b:bc:8f:cd:b0:e4:7c:82:1c:c2:09:9e:00:73:b5:1c:
        06:fc:81:02:db:29:62:05:48:4d:43:34:ed:f3:bf:f8:40:f0:
        a7:42:9e:42:62:54:41:65:eb:b0:5e:82:b0:15:1a:e3:eb:fe:
        29:98:67:4f:b4:e0:26:bf:4c:18:ca:40:08:9e:dc:b1:5a:49:
        6b:cf:8c:30:0b:d1:b2:fb:1b:18:b1:41:88:ff:bf:6b:85:7d:
        66:8f:09:fd:a3:21:2d:86:73:0d:c2:a4:2f:67:04:28:d1:c2:
        da:1a
-----BEGIN CERTIFICATE-----
MIIC5zCCAlCgAwIBAgIBBDANBgkqhkiG9w0BAQQFADB9MQswCQYDVQQGEwJJTjET
MBEGA1UECBMKTUFIQVJBU1RSQTENMAsGA1UEBxMEUFVORTEcMBoGA1UEChMTQVZB
WUEgSU5ESUEgUFZUIExURDENMAsGA1UECxMEQ1NBRDEdMBsGA1UEAxMUUFJPQUNU
SVZFIENPTlRBQ1QgQ0EwHhcNMTEwMTE4MTkzMTI3WhcNMjEwMTE1MTkzMTI3WjB5
MQswCQYDVQQGEwJJTjETMBEGA1UECBMKTUFIQVJBU1RSQTENMAsGA1UEBxMEUFVO
RTEcMBoGA1UEChMTQVZBWUEgSU5ESUEgUFZUIExURDENMAsGA1UECxMEQ1NBRDEZ
MBcGA1UEAxMQQUdFTlQgQ0xJRU5UIEtFWTCBnzANBgkqhkiG9w0BAQEFAAOBjQAw
gYkCgYEApZNtglefOpThSm8CFpzJGYVAmguFkScUf8YtBIAQrFqsTQZCZlgHYlq8
4Ihc6eULCcBthsmx48nNfaGRafkZtoNxy5JGwAVoyGeN1wu/bfaOIWFP2lmMf6ap
g9wd7ZCSZjnsOUlOtlEybt4SdTzs4MfZNurKPY9U5ISEDfuCuvECAwEAAaN7MHkw
CQYDVR0TBAIwADAsBglghkgBhvhCAQ0EHxYdT3BlblNTTCBHZW5lcmF0ZWQgQ2Vy
dGlmaWNhdGUwHQYDVR0OBBYEFFCkoI0vhx2jDi8brqF5sbsvIhsGMB8GA1UdIwQY
MBaAFG3AdKeeWYIRieLco+cGYwkCCNidMA0GCSqGSIb3DQEBBAUAA4GBADIDRhh2
Fus69BkgXbBg09zGMRtnC7yPzbDkfIIcwgmeAHO1HAb8gQLbKWIFSE1DNO3zv/hA
8KdCnkJiVEFl67BegrAVGuPr/imYZ0+04Ca/TBjKQAie3LFaSWvPjDAL0bL7Gxix
QYj/v2uFfWaPCf2jIS2Gcw3CpC9nBCjRwtoa
-----END CERTIFICATE-----
